target datalayout = "e-m:e-p270:32:32-p271:32:32-p272:64:64-i64:64-i128:128-f80:128-n8:16:32:64-S128"
target triple = "x86_64-pc-linux-gnu"

%struct.sh_st = type { ptr, i64, ptr, i64, ptr, i64, i64, ptr, ptr, i64 }

@secure_mem_initialized = internal global i32 0, align 4
@sec_malloc_lock = internal global ptr null, align 8
@secure_mem_used = internal global i64 0, align 8
@sh = internal global %struct.sh_st zeroinitializer, align 8
@.str.1 = private unnamed_addr constant [28 x i8] c"../openssl/crypto/mem_sec.c\00", align 1

; Function Attrs: nounwind uwtable
define internal void @sh_done() #0 {
  %1 = load ptr, ptr getelementptr inbounds nuw (%struct.sh_st, ptr @sh, i32 0, i32 4), align 8, !tbaa !20
  call void @CRYPTO_free(ptr noundef %1, ptr noundef @.str.1, i32 noundef 600)
  %2 = load ptr, ptr getelementptr inbounds nuw (%struct.sh_st, ptr @sh, i32 0, i32 7), align 8, !tbaa !21
  call void @CRYPTO_free(ptr noundef %2, ptr noundef @.str.1, i32 noundef 601)
  %3 = load ptr, ptr getelementptr inbounds nuw (%struct.sh_st, ptr @sh, i32 0, i32 8), align 8, !tbaa !22
  call void @CRYPTO_free(ptr noundef %3, ptr noundef @.str.1, i32 noundef 602)
  %4 = load ptr, ptr @sh, align 8, !tbaa !24
  %5 = icmp ne ptr %4, inttoptr (i64 -1 to ptr)
  br i1 %5, label %6, label %13

6:                                                ; preds = %0
  %7 = load i64, ptr getelementptr inbounds nuw (%struct.sh_st, ptr @sh, i32 0, i32 1), align 8, !tbaa !23
  %8 = icmp ne i64 %7, 0
  br i1 %8, label %9, label %13

9:                                                ; preds = %6
  %10 = load ptr, ptr @sh, align 8, !tbaa !24
  %11 = load i64, ptr getelementptr inbounds nuw (%struct.sh_st, ptr @sh, i32 0, i32 1), align 8, !tbaa !23
  %12 = call i32 @munmap(ptr noundef %10, i64 noundef %11) #7
  br label %13

13:                                               ; preds = %9, %6, %0
  call void @llvm.memset.p0.i64(ptr align 8 @sh, i8 0, i64 80, i1 false)
  ret void
}

; Function Attrs: nounwind uwtable
define i32 @CRYPTO_secure_malloc_done() #0 {
  %1 = alloca i32, align 4
  %2 = load i64, ptr @secure_mem_used, align 8, !tbaa !3
  %3 = icmp eq i64 %2, 0
  br i1 %3, label %4, label %6

4:                                                ; preds = %0
  call void @sh_done()
  store i32 0, ptr @secure_mem_initialized, align 4, !tbaa !7
  %5 = load ptr, ptr @sec_malloc_lock, align 8, !tbaa !9
  call void @CRYPTO_THREAD_lock_free(ptr noundef %5)
  store ptr null, ptr @sec_malloc_lock, align 8, !tbaa !9
  store i32 1, ptr %1, align 4
  br label %7

6:                                                ; preds = %0
  store i32 0, ptr %1, align 4
  br label %7

7:                                                ; preds = %6, %4
  %8 = load i32, ptr %1, align 4
  ret i32 %8
}