; Function Attrs: nounwind uwtable
define range(i32 0, 2) i32 @CRYPTO_secure_malloc_done() local_unnamed_addr #0 {
  %1 = load i64, ptr @secure_mem_used, align 8, !tbaa !25
  %2 = icmp eq i64 %1, 0
  br i1 %2, label %3, label %14

3:                                                ; preds = %0
  %4 = load ptr, ptr getelementptr inbounds nuw (i8, ptr @sh, i64 32), align 8, !tbaa !17
  tail call void @CRYPTO_free(ptr noundef %4, ptr noundef nonnull @.str.1, i32 noundef 600) #8
  %5 = load ptr, ptr getelementptr inbounds nuw (i8, ptr @sh, i64 56), align 8, !tbaa !18
  tail call void @CRYPTO_free(ptr noundef %5, ptr noundef nonnull @.str.1, i32 noundef 601) #8
  %6 = load ptr, ptr getelementptr inbounds nuw (i8, ptr @sh, i64 64), align 8, !tbaa !19
  tail call void @CRYPTO_free(ptr noundef %6, ptr noundef nonnull @.str.1, i32 noundef 602) #8
  %7 = load ptr, ptr @sh, align 8, !tbaa !21
  %8 = icmp ne ptr %7, inttoptr (i64 -1 to ptr)
  %9 = load i64, ptr getelementptr inbounds nuw (i8, ptr @sh, i64 8), align 8
  %10 = icmp ne i64 %9, 0
  %or.cond.i = select i1 %8, i1 %10, i1 false
  br i1 %or.cond.i, label %11, label %sh_done.exit

11:                                               ; preds = %3
  %12 = tail call i32 @munmap(ptr noundef %7, i64 noundef %9) #8
  br label %sh_done.exit

sh_done.exit:                                     ; preds = %3, %11
  tail call void @llvm.memset.p0.i64(ptr noundef nonnull align 8 dereferenceable(80) @sh, i8 0, i64 80, i1 false)
  store i1 false, ptr @secure_mem_initialized, align 4
  %13 = load ptr, ptr @sec_malloc_lock, align 8, !tbaa !3
  tail call void @CRYPTO_THREAD_lock_free(ptr noundef %13) #8
  store ptr null, ptr @sec_malloc_lock, align 8, !tbaa !3
  br label %14

14:                                               ; preds = %0, %sh_done.exit
  %.0 = phi i32 [ 1, %sh_done.exit ], [ 0, %0 ]
  ret i32 %.0
}